#include <math.h>
#include <stdio.h>
#include <stdlib.h>
#include <string.h>


int main()
{
    int n, i;
	int M = 0;
	scanf("%d",&n);
    for(i=1;i<=n;i++)
	{
		if(i<10)
		{
			if(i!=7)
				M = M + i*i;
			else
				M = M + 0;
		}
        else 
		{
			int a = i % 10;
			int b = (i - a) / 10;
			if(a!=7&&b!=7&&i%7!=0)
				M = M + i*i;
			else
				M = M + 0;
		}
	}
	printf("%d\n",M);
	return 0;
}