; ModuleID = '30/2177.c'
source_filename = "30/2177.c"
target datalayout = "e-m:e-p270:32:32-p271:32:32-p272:64:64-i64:64-f80:128-n8:16:32:64-S128"
target triple = "x86_64-pc-linux-gnu"

@.str = private unnamed_addr constant [3 x i8] c"%d\00", align 1
@.str.1 = private unnamed_addr constant [4 x i8] c"%d\0A\00", align 1

; Function Attrs: noinline nounwind uwtable
define dso_local i32 @main() #0 {
  %1 = alloca i32, align 4
  %2 = alloca i32, align 4
  %3 = alloca i32, align 4
  %4 = alloca i32, align 4
  %5 = alloca i32, align 4
  %6 = alloca i32, align 4
  store i32 0, i32* %1, align 4
  store i32 0, i32* %4, align 4
  %7 = call i32 (i8*, ...) @__isoc99_scanf(i8* getelementptr inbounds ([3 x i8], [3 x i8]* @.str, i64 0, i64 0), i32* %2)
  store i32 1, i32* %3, align 4
  br label %8

8:                                                ; preds = %55, %0
  %9 = load i32, i32* %3, align 4
  %10 = load i32, i32* %2, align 4
  %11 = icmp sle i32 %9, %10
  br i1 %11, label %12, label %58

12:                                               ; preds = %8
  %13 = load i32, i32* %3, align 4
  %14 = icmp slt i32 %13, 10
  br i1 %14, label %15, label %28

15:                                               ; preds = %12
  %16 = load i32, i32* %3, align 4
  %17 = icmp ne i32 %16, 7
  br i1 %17, label %18, label %24

18:                                               ; preds = %15
  %19 = load i32, i32* %4, align 4
  %20 = load i32, i32* %3, align 4
  %21 = load i32, i32* %3, align 4
  %22 = mul nsw i32 %20, %21
  %23 = add nsw i32 %19, %22
  store i32 %23, i32* %4, align 4
  br label %27

24:                                               ; preds = %15
  %25 = load i32, i32* %4, align 4
  %26 = add nsw i32 %25, 0
  store i32 %26, i32* %4, align 4
  br label %27

27:                                               ; preds = %24, %18
  br label %54

28:                                               ; preds = %12
  %29 = load i32, i32* %3, align 4
  %30 = srem i32 %29, 10
  store i32 %30, i32* %5, align 4
  %31 = load i32, i32* %3, align 4
  %32 = load i32, i32* %5, align 4
  %33 = sub nsw i32 %31, %32
  %34 = sdiv i32 %33, 10
  store i32 %34, i32* %6, align 4
  %35 = load i32, i32* %5, align 4
  %36 = icmp ne i32 %35, 7
  br i1 %36, label %37, label %50

37:                                               ; preds = %28
  %38 = load i32, i32* %6, align 4
  %39 = icmp ne i32 %38, 7
  br i1 %39, label %40, label %50

40:                                               ; preds = %37
  %41 = load i32, i32* %3, align 4
  %42 = srem i32 %41, 7
  %43 = icmp ne i32 %42, 0
  br i1 %43, label %44, label %50

44:                                               ; preds = %40
  %45 = load i32, i32* %4, align 4
  %46 = load i32, i32* %3, align 4
  %47 = load i32, i32* %3, align 4
  %48 = mul nsw i32 %46, %47
  %49 = add nsw i32 %45, %48
  store i32 %49, i32* %4, align 4
  br label %53

50:                                               ; preds = %40, %37, %28
  %51 = load i32, i32* %4, align 4
  %52 = add nsw i32 %51, 0
  store i32 %52, i32* %4, align 4
  br label %53

53:                                               ; preds = %50, %44
  br label %54

54:                                               ; preds = %53, %27
  br label %55

55:                                               ; preds = %54
  %56 = load i32, i32* %3, align 4
  %57 = add nsw i32 %56, 1
  store i32 %57, i32* %3, align 4
  br label %8

58:                                               ; preds = %8
  %59 = load i32, i32* %4, align 4
  %60 = call i32 (i8*, ...) @printf(i8* getelementptr inbounds ([4 x i8], [4 x i8]* @.str.1, i64 0, i64 0), i32 %59)
  ret i32 0
}

declare dso_local i32 @__isoc99_scanf(i8*, ...) #1

declare dso_local i32 @printf(i8*, ...) #1


!llvm.module.flags = !{!0}
!llvm.ident = !{!1}

!0 = !{i32 1, !"wchar_size", i32 4}
!1 = !{!"clang version 10.0.0-4ubuntu1 "}
